target datalayout = "e-m:e-p270:32:32-p271:32:32-p272:64:64-i64:64-i128:128-f80:128-n8:16:32:64-S128"
target triple = "x86_64-pc-linux-gnu"

%struct.RelationData = type { %struct.RelFileLocator, ptr, i32, i32, i8, i8, i8, i8, i8, i32, i32, i32, i32, ptr, ptr, i32, %struct.LockInfoData, ptr, ptr, ptr, ptr, ptr, i8, ptr, ptr, ptr, ptr, ptr, ptr, i32, ptr, i8, ptr, ptr, i32, i8, i32, ptr, i8, ptr, ptr, ptr, ptr, ptr, ptr, ptr, i32, ptr, ptr, ptr, ptr, ptr, ptr, ptr, ptr, ptr, ptr, ptr, ptr, ptr, ptr, ptr, ptr, ptr, ptr, ptr, i32, i8, ptr }
%struct.RelFileLocator = type { i32, i32, i32 }
%struct.LockInfoData = type { %struct.LockRelId }
%struct.LockRelId = type { i32, i32 }
%struct.FormData_pg_class = type { i32, %struct.nameData, i32, i32, i32, i32, i32, i32, i32, i32, float, i32, i32, i8, i8, i8, i8, i16, i16, i8, i8, i8, i8, i8, i8, i8, i8, i32, i32, i32 }
%struct.nameData = type { [64 x i8] }

@.str.2 = private unnamed_addr constant [10 x i8] c"cluster.c\00", align 1
@.str.18 = private unnamed_addr constant [36 x i8] c"cache lookup failed for relation %u\00", align 1
@__func__.make_new_heap = private unnamed_addr constant [14 x i8] c"make_new_heap\00", align 1
@.str.19 = private unnamed_addr constant [8 x i8] c"pg_temp\00", align 1
@.str.20 = private unnamed_addr constant [11 x i8] c"pg_temp_%u\00", align 1

; Function Attrs: inlinehint nounwind uwtable
define internal i64 @ObjectIdGetDatum(i32 noundef %0) #7 {
  %2 = alloca i32, align 4
  store i32 %0, ptr %2, align 4
  %3 = load i32, ptr %2, align 4
  %4 = zext i32 %3 to i64
  ret i64 %4
}

; Function Attrs: nounwind uwtable
define dso_local i32 @make_new_heap(i32 noundef %0, i32 noundef %1, i32 noundef %2, i8 noundef signext %3, i32 noundef %4) #0 {
  %6 = alloca i32, align 4
  %7 = alloca i32, align 4
  %8 = alloca i32, align 4
  %9 = alloca i8, align 1
  %10 = alloca i32, align 4
  %11 = alloca ptr, align 8
  %12 = alloca [64 x i8], align 16
  %13 = alloca i32, align 4
  %14 = alloca i32, align 4
  %15 = alloca ptr, align 8
  %16 = alloca ptr, align 8
  %17 = alloca i64, align 8
  %18 = alloca i8, align 1
  %19 = alloca i32, align 4
  store i32 %0, ptr %6, align 4
  store i32 %1, ptr %7, align 4
  store i32 %2, ptr %8, align 4
  store i8 %3, ptr %9, align 1
  store i32 %4, ptr %10, align 4
  call void @llvm.lifetime.start.p0(i64 8, ptr %11) #9
  call void @llvm.lifetime.start.p0(i64 64, ptr %12) #9
  call void @llvm.lifetime.start.p0(i64 4, ptr %13) #9
  call void @llvm.lifetime.start.p0(i64 4, ptr %14) #9
  call void @llvm.lifetime.start.p0(i64 8, ptr %15) #9
  call void @llvm.lifetime.start.p0(i64 8, ptr %16) #9
  call void @llvm.lifetime.start.p0(i64 8, ptr %17) #9
  call void @llvm.lifetime.start.p0(i64 1, ptr %18) #9
  call void @llvm.lifetime.start.p0(i64 4, ptr %19) #9
  %20 = load i32, ptr %6, align 4
  %21 = load i32, ptr %10, align 4
  %22 = call ptr @table_open(i32 noundef %20, i32 noundef %21)
  store ptr %22, ptr %15, align 8
  %23 = load ptr, ptr %15, align 8
  %24 = getelementptr inbounds nuw %struct.RelationData, ptr %23, i32 0, i32 14
  %25 = load ptr, ptr %24, align 8
  store ptr %25, ptr %11, align 8
  %26 = load i32, ptr %6, align 4
  %27 = call i64 @ObjectIdGetDatum(i32 noundef %26)
  %28 = call ptr @SearchSysCache1(i32 noundef 57, i64 noundef %27)
  store ptr %28, ptr %16, align 8
  %29 = load ptr, ptr %16, align 8
  %30 = icmp ne ptr %29, null
  br i1 %30, label %43, label %31

31:                                               ; preds = %5
  br label %32

32:                                               ; preds = %31
  br i1 true, label %33, label %35

33:                                               ; preds = %32
  %34 = call zeroext i1 @errstart_cold(i32 noundef 21, ptr noundef null) #11
  br i1 %34, label %37, label %40

35:                                               ; preds = %32
  %36 = call zeroext i1 @errstart(i32 noundef 21, ptr noundef null)
  br i1 %36, label %37, label %40

37:                                               ; preds = %35, %33
  %38 = load i32, ptr %6, align 4
  %39 = call i32 (ptr, ...) @errmsg_internal(ptr noundef @.str.18, i32 noundef %38)
  call void @errfinish(ptr noundef @.str.2, i32 noundef 733, ptr noundef @__func__.make_new_heap)
  br label %40

40:                                               ; preds = %37, %35, %33
  unreachable

41:                                               ; No predecessors!
  br label %42

42:                                               ; preds = %41
  br label %43

43:                                               ; preds = %42, %5
  %44 = load ptr, ptr %16, align 8
  %45 = call i64 @SysCacheGetAttr(i32 noundef 57, ptr noundef %44, i16 noundef signext 32, ptr noundef %18)
  store i64 %45, ptr %17, align 8
  %46 = load i8, ptr %18, align 1, !range !6, !noundef !7
  %47 = trunc i8 %46 to i1
  br i1 %47, label %48, label %49

48:                                               ; preds = %43
  store i64 0, ptr %17, align 8
  br label %49

49:                                               ; preds = %48, %43
  %50 = load i8, ptr %9, align 1
  %51 = sext i8 %50 to i32
  %52 = icmp eq i32 %51, 116
  br i1 %52, label %53, label %55

53:                                               ; preds = %49
  %54 = call i32 @LookupCreationNamespace(ptr noundef @.str.19)
  store i32 %54, ptr %19, align 4
  br label %61

55:                                               ; preds = %49
  %56 = load ptr, ptr %15, align 8
  %57 = getelementptr inbounds nuw %struct.RelationData, ptr %56, i32 0, i32 13
  %58 = load ptr, ptr %57, align 8
  %59 = getelementptr inbounds nuw %struct.FormData_pg_class, ptr %58, i32 0, i32 2
  %60 = load i32, ptr %59, align 4
  store i32 %60, ptr %19, align 4
  br label %61

61:                                               ; preds = %55, %53
  %62 = getelementptr inbounds [64 x i8], ptr %12, i64 0, i64 0
  %63 = load i32, ptr %6, align 4
  %64 = call i32 (ptr, i64, ptr, ...) @pg_snprintf(ptr noundef %62, i64 noundef 64, ptr noundef @.str.20, i32 noundef %63)
  %65 = getelementptr inbounds [64 x i8], ptr %12, i64 0, i64 0
  %66 = load i32, ptr %19, align 4
  %67 = load i32, ptr %7, align 4
  %68 = load ptr, ptr %15, align 8
  %69 = getelementptr inbounds nuw %struct.RelationData, ptr %68, i32 0, i32 13
  %70 = load ptr, ptr %69, align 8
  %71 = getelementptr inbounds nuw %struct.FormData_pg_class, ptr %70, i32 0, i32 5
  %72 = load i32, ptr %71, align 4
  %73 = load i32, ptr %8, align 4
  %74 = load ptr, ptr %11, align 8
  %75 = load i8, ptr %9, align 1
  %76 = load ptr, ptr %15, align 8
  %77 = getelementptr inbounds nuw %struct.RelationData, ptr %76, i32 0, i32 13
  %78 = load ptr, ptr %77, align 8
  %79 = getelementptr inbounds nuw %struct.FormData_pg_class, ptr %78, i32 0, i32 16
  %80 = load i8, ptr %79, align 1
  %81 = sext i8 %80 to i32
  %82 = icmp eq i32 %81, 114
  br i1 %82, label %115, label %83

83:                                               ; preds = %61
  %84 = load ptr, ptr %15, align 8
  %85 = getelementptr inbounds nuw %struct.RelationData, ptr %84, i32 0, i32 13
  %86 = load ptr, ptr %85, align 8
  %87 = getelementptr inbounds nuw %struct.FormData_pg_class, ptr %86, i32 0, i32 16
  %88 = load i8, ptr %87, align 1
  %89 = sext i8 %88 to i32
  %90 = icmp eq i32 %89, 105
  br i1 %90, label %115, label %91

91:                                               ; preds = %83
  %92 = load ptr, ptr %15, align 8
  %93 = getelementptr inbounds nuw %struct.RelationData, ptr %92, i32 0, i32 13
  %94 = load ptr, ptr %93, align 8
  %95 = getelementptr inbounds nuw %struct.FormData_pg_class, ptr %94, i32 0, i32 16
  %96 = load i8, ptr %95, align 1
  %97 = sext i8 %96 to i32
  %98 = icmp eq i32 %97, 83
  br i1 %98, label %115, label %99

99:                                               ; preds = %91
  %100 = load ptr, ptr %15, align 8
  %101 = getelementptr inbounds nuw %struct.RelationData, ptr %100, i32 0, i32 13
  %102 = load ptr, ptr %101, align 8
  %103 = getelementptr inbounds nuw %struct.FormData_pg_class, ptr %102, i32 0, i32 16
  %104 = load i8, ptr %103, align 1
  %105 = sext i8 %104 to i32
  %106 = icmp eq i32 %105, 116
  br i1 %106, label %115, label %107

107:                                              ; preds = %99
  %108 = load ptr, ptr %15, align 8
  %109 = getelementptr inbounds nuw %struct.RelationData, ptr %108, i32 0, i32 13
  %110 = load ptr, ptr %109, align 8
  %111 = getelementptr inbounds nuw %struct.FormData_pg_class, ptr %110, i32 0, i32 16
  %112 = load i8, ptr %111, align 1
  %113 = sext i8 %112 to i32
  %114 = icmp eq i32 %113, 109
  br i1 %114, label %115, label %122

115:                                              ; preds = %107, %99, %91, %83, %61
  %116 = load ptr, ptr %15, align 8
  %117 = getelementptr inbounds nuw %struct.RelationData, ptr %116, i32 0, i32 13
  %118 = load ptr, ptr %117, align 8
  %119 = getelementptr inbounds nuw %struct.FormData_pg_class, ptr %118, i32 0, i32 7
  %120 = load i32, ptr %119, align 4
  %121 = icmp eq i32 %120, 0
  br label %122

122:                                              ; preds = %115, %107
  %123 = phi i1 [ false, %107 ], [ %121, %115 ]
  %124 = load i64, ptr %17, align 8
  %125 = load i32, ptr %6, align 4
  %126 = call i32 @heap_create_with_catalog(ptr noundef %65, i32 noundef %66, i32 noundef %67, i32 noundef 0, i32 noundef 0, i32 noundef 0, i32 noundef %72, i32 noundef %73, ptr noundef %74, ptr noundef null, i8 noundef signext 114, i8 noundef signext %75, i1 noundef zeroext false, i1 noundef zeroext %123, i32 noundef 0, i64 noundef %124, i1 noundef zeroext false, i1 noundef zeroext true, i1 noundef zeroext true, i32 noundef %125, ptr noundef null)
  store i32 %126, ptr %13, align 4
  %127 = load ptr, ptr %16, align 8
  call void @ReleaseSysCache(ptr noundef %127)
  call void @CommandCounterIncrement()
  %128 = load ptr, ptr %15, align 8
  %129 = getelementptr inbounds nuw %struct.RelationData, ptr %128, i32 0, i32 13
  %130 = load ptr, ptr %129, align 8
  %131 = getelementptr inbounds nuw %struct.FormData_pg_class, ptr %130, i32 0, i32 12
  %132 = load i32, ptr %131, align 4
  store i32 %132, ptr %14, align 4
  %133 = load i32, ptr %14, align 4
  %134 = icmp ne i32 %133, 0
  br i1 %134, label %135, label %165

135:                                              ; preds = %122
  %136 = load i32, ptr %14, align 4
  %137 = call i64 @ObjectIdGetDatum(i32 noundef %136)
  %138 = call ptr @SearchSysCache1(i32 noundef 57, i64 noundef %137)
  store ptr %138, ptr %16, align 8
  %139 = load ptr, ptr %16, align 8
  %140 = icmp ne ptr %139, null
  br i1 %140, label %153, label %141

141:                                              ; preds = %135
  br label %142

142:                                              ; preds = %141
  br i1 true, label %143, label %145

143:                                              ; preds = %142
  %144 = call zeroext i1 @errstart_cold(i32 noundef 21, ptr noundef null) #11
  br i1 %144, label %147, label %150

145:                                              ; preds = %142
  %146 = call zeroext i1 @errstart(i32 noundef 21, ptr noundef null)
  br i1 %146, label %147, label %150

147:                                              ; preds = %145, %143
  %148 = load i32, ptr %14, align 4
  %149 = call i32 (ptr, ...) @errmsg_internal(ptr noundef @.str.18, i32 noundef %148)
  call void @errfinish(ptr noundef @.str.2, i32 noundef 806, ptr noundef @__func__.make_new_heap)
  br label %150

150:                                              ; preds = %147, %145, %143
  unreachable

151:                                              ; No predecessors!
  br label %152

152:                                              ; preds = %151
  br label %153

153:                                              ; preds = %152, %135
  %154 = load ptr, ptr %16, align 8
  %155 = call i64 @SysCacheGetAttr(i32 noundef 57, ptr noundef %154, i16 noundef signext 32, ptr noundef %18)
  store i64 %155, ptr %17, align 8
  %156 = load i8, ptr %18, align 1, !range !6, !noundef !7
  %157 = trunc i8 %156 to i1
  br i1 %157, label %158, label %159

158:                                              ; preds = %153
  store i64 0, ptr %17, align 8
  br label %159

159:                                              ; preds = %158, %153
  %160 = load i32, ptr %13, align 4
  %161 = load i64, ptr %17, align 8
  %162 = load i32, ptr %10, align 4
  %163 = load i32, ptr %14, align 4
  call void @NewHeapCreateToastTable(i32 noundef %160, i64 noundef %161, i32 noundef %162, i32 noundef %163)
  %164 = load ptr, ptr %16, align 8
  call void @ReleaseSysCache(ptr noundef %164)
  br label %165

165:                                              ; preds = %159, %122
  %166 = load ptr, ptr %15, align 8
  call void @table_close(ptr noundef %166, i32 noundef 0)
  %167 = load i32, ptr %13, align 4
  call void @llvm.lifetime.end.p0(i64 4, ptr %19) #9
  call void @llvm.lifetime.end.p0(i64 1, ptr %18) #9
  call void @llvm.lifetime.end.p0(i64 8, ptr %17) #9
  call void @llvm.lifetime.end.p0(i64 8, ptr %16) #9
  call void @llvm.lifetime.end.p0(i64 8, ptr %15) #9
  call void @llvm.lifetime.end.p0(i64 4, ptr %14) #9
  call void @llvm.lifetime.end.p0(i64 4, ptr %13) #9
  call void @llvm.lifetime.end.p0(i64 64, ptr %12) #9
  call void @llvm.lifetime.end.p0(i64 8, ptr %11) #9
  ret i32 %167
}