; Function Attrs: nounwind uwtable
define dso_local i32 @make_new_heap(i32 noundef %0, i32 noundef %1, i32 noundef %2, i8 noundef signext %3, i32 noundef %4) local_unnamed_addr #0 {
  %6 = alloca [64 x i8], align 16
  %7 = alloca i8, align 1
  call void @llvm.lifetime.start.p0(i64 64, ptr nonnull %6) #7
  call void @llvm.lifetime.start.p0(i64 1, ptr nonnull %7) #7
  %8 = tail call ptr @table_open(i32 noundef %0, i32 noundef %4) #7
  %9 = getelementptr inbounds nuw i8, ptr %8, i64 64
  %10 = load ptr, ptr %9, align 8
  %11 = zext i32 %0 to i64
  %12 = tail call ptr @SearchSysCache1(i32 noundef 57, i64 noundef %11) #7
  %.not = icmp eq ptr %12, null
  br i1 %.not, label %13, label %16

13:                                               ; preds = %5
  %14 = tail call zeroext i1 @errstart_cold(i32 noundef 21, ptr noundef null) #9
  tail call void @llvm.assume(i1 %14)
  %15 = tail call i32 (ptr, ...) @errmsg_internal(ptr noundef nonnull @.str.18, i32 noundef %0) #7
  tail call void @errfinish(ptr noundef nonnull @.str.2, i32 noundef 733, ptr noundef nonnull @__func__.make_new_heap) #7
  unreachable

16:                                               ; preds = %5
  %17 = call i64 @SysCacheGetAttr(i32 noundef 57, ptr noundef nonnull %12, i16 noundef signext 32, ptr noundef nonnull %7) #7
  %18 = load i8, ptr %7, align 1, !range !4, !noundef !5
  %19 = trunc nuw i8 %18 to i1
  %spec.store.select = select i1 %19, i64 0, i64 %17
  %20 = icmp eq i8 %3, 116
  br i1 %20, label %21, label %23

21:                                               ; preds = %16
  %22 = call i32 @LookupCreationNamespace(ptr noundef nonnull @.str.19) #7
  br label %28

23:                                               ; preds = %16
  %24 = getelementptr inbounds nuw i8, ptr %8, i64 56
  %25 = load ptr, ptr %24, align 8
  %26 = getelementptr inbounds nuw i8, ptr %25, i64 68
  %27 = load i32, ptr %26, align 4
  br label %28

28:                                               ; preds = %23, %21
  %.0 = phi i32 [ %22, %21 ], [ %27, %23 ]
  %29 = call i32 (ptr, i64, ptr, ...) @pg_snprintf(ptr noundef nonnull %6, i64 noundef 64, ptr noundef nonnull @.str.20, i32 noundef %0) #7
  %30 = getelementptr inbounds nuw i8, ptr %8, i64 56
  %31 = load ptr, ptr %30, align 8
  %32 = getelementptr inbounds nuw i8, ptr %31, i64 80
  %33 = load i32, ptr %32, align 4
  %34 = getelementptr inbounds nuw i8, ptr %31, i64 115
  %35 = load i8, ptr %34, align 1
  switch i8 %35, label %40 [
    i8 114, label %36
    i8 105, label %36
    i8 83, label %36
    i8 116, label %36
    i8 109, label %36
  ]

36:                                               ; preds = %28, %28, %28, %28, %28
  %37 = getelementptr inbounds nuw i8, ptr %31, i64 88
  %38 = load i32, ptr %37, align 4
  %39 = icmp eq i32 %38, 0
  br label %40

40:                                               ; preds = %28, %36
  %41 = phi i1 [ %39, %36 ], [ false, %28 ]
  %42 = call i32 @heap_create_with_catalog(ptr noundef nonnull %6, i32 noundef %.0, i32 noundef %1, i32 noundef 0, i32 noundef 0, i32 noundef 0, i32 noundef %33, i32 noundef %2, ptr noundef %10, ptr noundef null, i8 noundef signext 114, i8 noundef signext %3, i1 noundef zeroext false, i1 noundef zeroext %41, i32 noundef 0, i64 noundef %spec.store.select, i1 noundef zeroext false, i1 noundef zeroext true, i1 noundef zeroext true, i32 noundef %0, ptr noundef null) #7
  call void @ReleaseSysCache(ptr noundef nonnull %12) #7
  call void @CommandCounterIncrement() #7
  %43 = load ptr, ptr %30, align 8
  %44 = getelementptr inbounds nuw i8, ptr %43, i64 108
  %45 = load i32, ptr %44, align 4
  %.not42 = icmp eq i32 %45, 0
  br i1 %.not42, label %56, label %46

46:                                               ; preds = %40
  %47 = zext i32 %45 to i64
  %48 = call ptr @SearchSysCache1(i32 noundef 57, i64 noundef %47) #7
  %.not43 = icmp eq ptr %48, null
  br i1 %.not43, label %49, label %52

49:                                               ; preds = %46
  %50 = call zeroext i1 @errstart_cold(i32 noundef 21, ptr noundef null) #9
  call void @llvm.assume(i1 %50)
  %51 = call i32 (ptr, ...) @errmsg_internal(ptr noundef nonnull @.str.18, i32 noundef %45) #7
  call void @errfinish(ptr noundef nonnull @.str.2, i32 noundef 806, ptr noundef nonnull @__func__.make_new_heap) #7
  unreachable

52:                                               ; preds = %46
  %53 = call i64 @SysCacheGetAttr(i32 noundef 57, ptr noundef nonnull %48, i16 noundef signext 32, ptr noundef nonnull %7) #7
  %54 = load i8, ptr %7, align 1, !range !4, !noundef !5
  %55 = trunc nuw i8 %54 to i1
  %spec.store.select1 = select i1 %55, i64 0, i64 %53
  call void @NewHeapCreateToastTable(i32 noundef %42, i64 noundef %spec.store.select1, i32 noundef %4, i32 noundef %45) #7
  call void @ReleaseSysCache(ptr noundef nonnull %48) #7
  br label %56

56:                                               ; preds = %52, %40
  call void @table_close(ptr noundef nonnull %8, i32 noundef 0) #7
  call void @llvm.lifetime.end.p0(i64 1, ptr nonnull %7) #7
  call void @llvm.lifetime.end.p0(i64 64, ptr nonnull %6) #7
  ret i32 %42
}